; Function Attrs: nofree nosync nounwind memory(readwrite, inaccessiblemem: none) uwtable
define void @Dar_LibSetup0_rec(ptr noundef %0, ptr noundef %1, i32 noundef %2, i32 noundef %3) local_unnamed_addr #9 {
  %5 = load i64, ptr %1, align 4
  %6 = and i64 %5, 34359738368
  %.not = icmp ne i64 %6, 0
  %7 = lshr i64 %5, 36
  %8 = trunc nuw nsw i64 %7 to i32
  %9 = icmp eq i32 %2, %8
  %or.cond = select i1 %.not, i1 true, i1 %9
  br i1 %or.cond, label %45, label %10

10:                                               ; preds = %4
  %11 = and i32 %2, 268435455
  %12 = zext nneg i32 %11 to i64
  %13 = shl nuw i64 %12, 36
  %14 = and i64 %5, 34359738367
  %15 = or disjoint i64 %14, %13
  store i64 %15, ptr %1, align 4
  %16 = and i64 %5, 65535
  %.val26 = load ptr, ptr %0, align 8
  %17 = getelementptr inbounds nuw %struct.Dar_LibObj_t_, ptr %.val26, i64 %16
  tail call void @Dar_LibSetup0_rec(ptr noundef nonnull %0, ptr noundef %17, i32 noundef %2, i32 noundef %3)
  %18 = load i64, ptr %1, align 4
  %19 = lshr i64 %18, 16
  %.val = load ptr, ptr %0, align 8
  %20 = and i64 %19, 65535
  %21 = getelementptr inbounds nuw %struct.Dar_LibObj_t_, ptr %.val, i64 %20
  tail call void @Dar_LibSetup0_rec(ptr noundef nonnull %0, ptr noundef %21, i32 noundef %2, i32 noundef %3)
  %.not23 = icmp eq i32 %3, 0
  br i1 %.not23, label %39, label %22

22:                                               ; preds = %10
  %23 = load ptr, ptr %0, align 8
  %24 = ptrtoint ptr %1 to i64
  %25 = ptrtoint ptr %23 to i64
  %26 = sub i64 %24, %25
  %27 = lshr exact i64 %26, 3
  %28 = trunc i64 %27 to i32
  %29 = getelementptr inbounds nuw i8, ptr %0, i64 11624
  %30 = sext i32 %2 to i64
  %31 = getelementptr inbounds [222 x ptr], ptr %29, i64 0, i64 %30
  %32 = load ptr, ptr %31, align 8
  %33 = getelementptr inbounds nuw i8, ptr %0, i64 10732
  %34 = getelementptr inbounds [222 x i32], ptr %33, i64 0, i64 %30
  %35 = load i32, ptr %34, align 4
  %36 = add nsw i32 %35, 1
  store i32 %36, ptr %34, align 4
  %37 = sext i32 %35 to i64
  %38 = getelementptr inbounds i32, ptr %32, i64 %37
  store i32 %28, ptr %38, align 4
  br label %45

39:                                               ; preds = %10
  %40 = getelementptr inbounds nuw i8, ptr %0, i64 10732
  %41 = sext i32 %2 to i64
  %42 = getelementptr inbounds [222 x i32], ptr %40, i64 0, i64 %41
  %43 = load i32, ptr %42, align 4
  %44 = add nsw i32 %43, 1
  store i32 %44, ptr %42, align 4
  br label %45

45:                                               ; preds = %4, %39, %22
  ret void
}